target datalayout = "e-m:e-p270:32:32-p271:32:32-p272:64:64-i64:64-i128:128-f80:128-n8:16:32:64-S128"
target triple = "x86_64-unknown-linux-gnu"

%struct.QTailQLink = type { ptr, ptr }
%struct.VirtIOSCSIReq = type <{ %struct.VirtQueueElement, ptr, ptr, %struct.QEMUSGList, %struct.QEMUIOVector, %union.anon.6, i32, [4 x i8], ptr, i64, i32, %union.anon.7, %union.anon.8, [4 x i8] }>
%struct.VirtQueueElement = type { i32, i32, i32, i32, i32, ptr, ptr, ptr, ptr }
%struct.QEMUSGList = type { ptr, i32, i32, i64, ptr, ptr }
%struct.QEMUIOVector = type { ptr, i32, %union.anon.4 }
%union.anon.4 = type { %struct.anon }
%struct.anon = type { i32, %struct.iovec }
%struct.iovec = type { ptr, i64 }
%union.anon.6 = type { %struct.QTailQLink }
%union.anon.7 = type { %struct.virtio_scsi_event }
%struct.virtio_scsi_event = type { i32, [8 x i8], i32 }
%union.anon.8 = type { %struct.virtio_scsi_ctrl_tmf_req }
%struct.virtio_scsi_ctrl_tmf_req = type { i32, i32, [8 x i8], i64 }
%struct.virtio_scsi_ctrl_tmf_resp = type { i8 }
%struct.VirtIOSCSICancelNotifier = type { %struct.Notifier, ptr }
%struct.Notifier = type { ptr, %struct.anon.12 }
%struct.anon.12 = type { ptr, ptr }
%struct.timeval = type { i64, i64 }

@trace_events_enabled_count = external global i32, align 4
@message_with_timestamp = external global i8, align 1
@qemu_loglevel = external global i32, align 4
@_TRACE_VIRTIO_SCSI_TMF_RESP_DSTATE = external global i16, align 2
@.str.39 = private unnamed_addr constant [84 x i8] c"%d@%zu.%06zu:virtio_scsi_tmf_resp virtio_scsi_tmf_resp lun=%u tag=0x%x response=%d\0A\00", align 1
@.str.40 = private unnamed_addr constant [71 x i8] c"virtio_scsi_tmf_resp virtio_scsi_tmf_resp lun=%u tag=0x%x response=%d\0A\00", align 1

; Function Attrs: nounwind sspstrong uwtable
define internal zeroext i1 @qemu_loglevel_mask(i32 noundef %mask) #0 {
entry:
  %mask.addr = alloca i32, align 4
  store i32 %mask, ptr %mask.addr, align 4
  %0 = load i32, ptr @qemu_loglevel, align 4
  %1 = load i32, ptr %mask.addr, align 4
  %and = and i32 %0, %1
  %cmp = icmp ne i32 %and, 0
  ret i1 %cmp
}

; Function Attrs: nounwind sspstrong uwtable
define internal void @_nocheck__trace_virtio_scsi_tmf_resp(i32 noundef %lun, i32 noundef %tag, i32 noundef %response) #0 {
entry:
  %lun.addr = alloca i32, align 4
  %tag.addr = alloca i32, align 4
  %response.addr = alloca i32, align 4
  %_now = alloca %struct.timeval, align 8
  store i32 %lun, ptr %lun.addr, align 4
  store i32 %tag, ptr %tag.addr, align 4
  store i32 %response, ptr %response.addr, align 4
  %0 = load i32, ptr @trace_events_enabled_count, align 4
  %tobool = icmp ne i32 %0, 0
  %lnot = xor i1 %tobool, true
  %lnot1 = xor i1 %lnot, true
  %lnot.ext = zext i1 %lnot1 to i32
  %conv = sext i32 %lnot.ext to i64
  %tobool2 = icmp ne i64 %conv, 0
  br i1 %tobool2, label %land.lhs.true, label %if.end11

land.lhs.true:                                    ; preds = %entry
  %1 = load i16, ptr @_TRACE_VIRTIO_SCSI_TMF_RESP_DSTATE, align 2
  %conv3 = zext i16 %1 to i32
  %tobool4 = icmp ne i32 %conv3, 0
  br i1 %tobool4, label %land.lhs.true5, label %if.end11

land.lhs.true5:                                   ; preds = %land.lhs.true
  %call = call zeroext i1 @qemu_loglevel_mask(i32 noundef 32768)
  br i1 %call, label %if.then, label %if.end11

if.then:                                          ; preds = %land.lhs.true5
  %2 = load i8, ptr @message_with_timestamp, align 1
  %tobool7 = trunc i8 %2 to i1
  br i1 %tobool7, label %if.then8, label %if.else

if.then8:                                         ; preds = %if.then
  %call9 = call i32 @gettimeofday(ptr noundef %_now, ptr noundef null) #12
  %call10 = call i32 @qemu_get_thread_id()
  %tv_sec = getelementptr inbounds %struct.timeval, ptr %_now, i32 0, i32 0
  %3 = load i64, ptr %tv_sec, align 8
  %tv_usec = getelementptr inbounds %struct.timeval, ptr %_now, i32 0, i32 1
  %4 = load i64, ptr %tv_usec, align 8
  %5 = load i32, ptr %lun.addr, align 4
  %6 = load i32, ptr %tag.addr, align 4
  %7 = load i32, ptr %response.addr, align 4
  call void (ptr, ...) @qemu_log(ptr noundef @.str.39, i32 noundef %call10, i64 noundef %3, i64 noundef %4, i32 noundef %5, i32 noundef %6, i32 noundef %7)
  br label %if.end

if.else:                                          ; preds = %if.then
  %8 = load i32, ptr %lun.addr, align 4
  %9 = load i32, ptr %tag.addr, align 4
  %10 = load i32, ptr %response.addr, align 4
  call void (ptr, ...) @qemu_log(ptr noundef @.str.40, i32 noundef %8, i32 noundef %9, i32 noundef %10)
  br label %if.end

if.end:                                           ; preds = %if.else, %if.then8
  br label %if.end11

if.end11:                                         ; preds = %if.end, %land.lhs.true5, %land.lhs.true, %entry
  ret void
}

; Function Attrs: nounwind sspstrong uwtable
define internal void @trace_virtio_scsi_tmf_resp(i32 noundef %lun, i32 noundef %tag, i32 noundef %response) #0 {
entry:
  %lun.addr = alloca i32, align 4
  %tag.addr = alloca i32, align 4
  %response.addr = alloca i32, align 4
  store i32 %lun, ptr %lun.addr, align 4
  store i32 %tag, ptr %tag.addr, align 4
  store i32 %response, ptr %response.addr, align 4
  %0 = load i32, ptr %lun.addr, align 4
  %1 = load i32, ptr %tag.addr, align 4
  %2 = load i32, ptr %response.addr, align 4
  call void @_nocheck__trace_virtio_scsi_tmf_resp(i32 noundef %0, i32 noundef %1, i32 noundef %2)
  ret void
}

; Function Attrs: nounwind sspstrong uwtable
define internal i32 @virtio_scsi_get_lun(ptr noundef %lun) #0 {
entry:
  %lun.addr = alloca ptr, align 8
  store ptr %lun, ptr %lun.addr, align 8
  %0 = load ptr, ptr %lun.addr, align 8
  %arrayidx = getelementptr i8, ptr %0, i64 2
  %1 = load i8, ptr %arrayidx, align 1
  %conv = zext i8 %1 to i32
  %shl = shl i32 %conv, 8
  %2 = load ptr, ptr %lun.addr, align 8
  %arrayidx1 = getelementptr i8, ptr %2, i64 3
  %3 = load i8, ptr %arrayidx1, align 1
  %conv2 = zext i8 %3 to i32
  %or = or i32 %shl, %conv2
  %and = and i32 %or, 16383
  ret i32 %and
}

; Function Attrs: nounwind sspstrong uwtable
define internal void @virtio_scsi_cancel_notify(ptr noundef %notifier, ptr noundef %data) #0 {
entry:
  %notifier.addr = alloca ptr, align 8
  %data.addr = alloca ptr, align 8
  %n = alloca ptr, align 8
  %__mptr = alloca ptr, align 8
  %tmp = alloca ptr, align 8
  %req = alloca ptr, align 8
  store ptr %notifier, ptr %notifier.addr, align 8
  store ptr %data, ptr %data.addr, align 8
  %0 = load ptr, ptr %notifier.addr, align 8
  store ptr %0, ptr %__mptr, align 8
  %1 = load ptr, ptr %__mptr, align 8
  %add.ptr = getelementptr i8, ptr %1, i64 0
  store ptr %add.ptr, ptr %tmp, align 8
  %2 = load ptr, ptr %tmp, align 8
  store ptr %2, ptr %n, align 8
  %3 = load ptr, ptr %n, align 8
  %tmf_req = getelementptr inbounds %struct.VirtIOSCSICancelNotifier, ptr %3, i32 0, i32 1
  %4 = load ptr, ptr %tmf_req, align 8
  %remaining = getelementptr inbounds %struct.VirtIOSCSIReq, ptr %4, i32 0, i32 6
  %5 = load i32, ptr %remaining, align 8
  %dec = add i32 %5, -1
  store i32 %dec, ptr %remaining, align 8
  %cmp = icmp eq i32 %dec, 0
  br i1 %cmp, label %if.then, label %if.end

if.then:                                          ; preds = %entry
  %6 = load ptr, ptr %n, align 8
  %tmf_req1 = getelementptr inbounds %struct.VirtIOSCSICancelNotifier, ptr %6, i32 0, i32 1
  %7 = load ptr, ptr %tmf_req1, align 8
  store ptr %7, ptr %req, align 8
  %8 = load ptr, ptr %req, align 8
  %req2 = getelementptr inbounds %struct.VirtIOSCSIReq, ptr %8, i32 0, i32 12
  %lun = getelementptr inbounds %struct.virtio_scsi_ctrl_tmf_req, ptr %req2, i32 0, i32 2
  %arraydecay = getelementptr inbounds [8 x i8], ptr %lun, i64 0, i64 0
  %call = call i32 @virtio_scsi_get_lun(ptr noundef %arraydecay)
  %9 = load ptr, ptr %req, align 8
  %req3 = getelementptr inbounds %struct.VirtIOSCSIReq, ptr %9, i32 0, i32 12
  %tag = getelementptr inbounds %struct.virtio_scsi_ctrl_tmf_req, ptr %req3, i32 0, i32 3
  %10 = load i64, ptr %tag, align 4
  %conv = trunc i64 %10 to i32
  %11 = load ptr, ptr %req, align 8
  %resp = getelementptr inbounds %struct.VirtIOSCSIReq, ptr %11, i32 0, i32 11
  %response = getelementptr inbounds %struct.virtio_scsi_ctrl_tmf_resp, ptr %resp, i32 0, i32 0
  %12 = load i8, ptr %response, align 4
  %conv4 = zext i8 %12 to i32
  call void @trace_virtio_scsi_tmf_resp(i32 noundef %call, i32 noundef %conv, i32 noundef %conv4)
  %13 = load ptr, ptr %req, align 8
  call void @virtio_scsi_complete_req(ptr noundef %13)
  br label %if.end

if.end:                                           ; preds = %if.then, %entry
  %14 = load ptr, ptr %n, align 8
  call void @g_free(ptr noundef %14)
  ret void
}