; Function Attrs: nounwind sspstrong uwtable
define internal void @virtio_scsi_cancel_notify(ptr noundef %notifier, ptr readnone captures(none) %data) #0 {
entry:
  %_now.i.i = alloca %struct.timeval, align 8
  %tmf_req = getelementptr inbounds nuw i8, ptr %notifier, i64 24
  %0 = load ptr, ptr %tmf_req, align 8
  %remaining = getelementptr inbounds nuw i8, ptr %0, i64 168
  %1 = load i32, ptr %remaining, align 8
  %dec = add i32 %1, -1
  store i32 %dec, ptr %remaining, align 8
  %cmp = icmp eq i32 %dec, 0
  br i1 %cmp, label %if.then, label %if.end

if.then:                                          ; preds = %entry
  %2 = load ptr, ptr %tmf_req, align 8
  %3 = getelementptr i8, ptr %2, i64 222
  %lun.val = load i8, ptr %3, align 1
  %4 = getelementptr i8, ptr %2, i64 223
  %lun.val6 = load i8, ptr %4, align 1
  %conv.i = zext i8 %lun.val to i32
  %shl.i = shl nuw nsw i32 %conv.i, 8
  %conv2.i = zext i8 %lun.val6 to i32
  %shl.masked.i = and i32 %shl.i, 16128
  %and.i = or disjoint i32 %shl.masked.i, %conv2.i
  %tag = getelementptr inbounds nuw i8, ptr %2, i64 228
  %5 = load i64, ptr %tag, align 4
  %conv = trunc i64 %5 to i32
  %resp = getelementptr inbounds nuw i8, ptr %2, i64 196
  %6 = load i8, ptr %resp, align 4
  %conv4 = zext i8 %6 to i32
  call void @llvm.lifetime.start.p0(i64 16, ptr nonnull %_now.i.i)
  %7 = load i32, ptr @trace_events_enabled_count, align 4
  %tobool.i.i = icmp ne i32 %7, 0
  %8 = load i16, ptr @_TRACE_VIRTIO_SCSI_TMF_RESP_DSTATE, align 2
  %tobool4.i.i = icmp ne i16 %8, 0
  %or.cond.i.i = select i1 %tobool.i.i, i1 %tobool4.i.i, i1 false
  br i1 %or.cond.i.i, label %land.lhs.true5.i.i, label %trace_virtio_scsi_tmf_resp.exit

land.lhs.true5.i.i:                               ; preds = %if.then
  %9 = load i32, ptr @qemu_loglevel, align 4
  %and.i.i.i = and i32 %9, 32768
  %cmp.i.not.i.i = icmp eq i32 %and.i.i.i, 0
  br i1 %cmp.i.not.i.i, label %trace_virtio_scsi_tmf_resp.exit, label %if.then.i.i

if.then.i.i:                                      ; preds = %land.lhs.true5.i.i
  %10 = load i8, ptr @message_with_timestamp, align 1
  %tobool7.i.i = trunc i8 %10 to i1
  br i1 %tobool7.i.i, label %if.then8.i.i, label %if.else.i.i

if.then8.i.i:                                     ; preds = %if.then.i.i
  %call9.i.i = call i32 @gettimeofday(ptr noundef nonnull %_now.i.i, ptr noundef null) #13
  %call10.i.i = tail call i32 @qemu_get_thread_id() #13
  %11 = load i64, ptr %_now.i.i, align 8
  %tv_usec.i.i = getelementptr inbounds nuw i8, ptr %_now.i.i, i64 8
  %12 = load i64, ptr %tv_usec.i.i, align 8
  tail call void (ptr, ...) @qemu_log(ptr noundef nonnull @.str.39, i32 noundef %call10.i.i, i64 noundef %11, i64 noundef %12, i32 noundef range(i32 0, 16384) %and.i, i32 noundef %conv, i32 noundef range(i32 0, 256) %conv4) #13
  br label %trace_virtio_scsi_tmf_resp.exit

if.else.i.i:                                      ; preds = %if.then.i.i
  tail call void (ptr, ...) @qemu_log(ptr noundef nonnull @.str.40, i32 noundef range(i32 0, 16384) %and.i, i32 noundef %conv, i32 noundef range(i32 0, 256) %conv4) #13
  br label %trace_virtio_scsi_tmf_resp.exit

trace_virtio_scsi_tmf_resp.exit:                  ; preds = %if.then, %land.lhs.true5.i.i, %if.then8.i.i, %if.else.i.i
  call void @llvm.lifetime.end.p0(i64 16, ptr nonnull %_now.i.i)
  tail call fastcc void @virtio_scsi_complete_req(ptr noundef nonnull %2)
  br label %if.end

if.end:                                           ; preds = %trace_virtio_scsi_tmf_resp.exit, %entry
  tail call void @g_free(ptr noundef nonnull %notifier) #13
  ret void
}